target datalayout = "e-m:e-p270:32:32-p271:32:32-p272:64:64-i64:64-i128:128-f80:128-n8:16:32:64-S128"
target triple = "x86_64-pc-linux-gnu"

; Function Attrs: mustprogress uwtable
define noundef i32 @_ZN11CMainWindow11qt_metacallEN11QMetaObject4CallEiPPv(ptr noundef nonnull align 8 dereferenceable(288) %0, i32 noundef %1, i32 noundef %2, ptr noundef %3) unnamed_addr #0 align 2 {
  %5 = alloca i32, align 4
  %6 = alloca ptr, align 8
  %7 = alloca i32, align 4
  %8 = alloca i32, align 4
  %9 = alloca ptr, align 8
  store ptr %0, ptr %6, align 8
  store i32 %1, ptr %7, align 4
  store i32 %2, ptr %8, align 4
  store ptr %3, ptr %9, align 8
  %10 = load ptr, ptr %6, align 8
  %11 = load i32, ptr %7, align 4
  %12 = load i32, ptr %8, align 4
  %13 = load ptr, ptr %9, align 8
  %14 = call noundef i32 @_ZN11QMainWindow11qt_metacallEN11QMetaObject4CallEiPPv(ptr noundef nonnull align 8 dereferenceable(40) %10, i32 noundef %11, i32 noundef %12, ptr noundef %13)
  store i32 %14, ptr %8, align 4
  %15 = load i32, ptr %8, align 4
  %16 = icmp slt i32 %15, 0
  br i1 %16, label %17, label %19

17:                                               ; preds = %4
  %18 = load i32, ptr %8, align 4
  store i32 %18, ptr %5, align 4
  br label %48

19:                                               ; preds = %4
  %20 = load i32, ptr %7, align 4
  %21 = icmp eq i32 %20, 0
  br i1 %21, label %22, label %32

22:                                               ; preds = %19
  %23 = load i32, ptr %8, align 4
  %24 = icmp slt i32 %23, 16
  br i1 %24, label %25, label %29

25:                                               ; preds = %22
  %26 = load i32, ptr %7, align 4
  %27 = load i32, ptr %8, align 4
  %28 = load ptr, ptr %9, align 8
  call void @_ZN11CMainWindow18qt_static_metacallEP7QObjectN11QMetaObject4CallEiPPv(ptr noundef %10, i32 noundef %26, i32 noundef %27, ptr noundef %28)
  br label %29

29:                                               ; preds = %25, %22
  %30 = load i32, ptr %8, align 4
  %31 = sub nsw i32 %30, 16
  store i32 %31, ptr %8, align 4
  br label %46

32:                                               ; preds = %19
  %33 = load i32, ptr %7, align 4
  %34 = icmp eq i32 %33, 7
  br i1 %34, label %35, label %45

35:                                               ; preds = %32
  %36 = load i32, ptr %8, align 4
  %37 = icmp slt i32 %36, 16
  br i1 %37, label %38, label %42

38:                                               ; preds = %35
  %39 = load i32, ptr %7, align 4
  %40 = load i32, ptr %8, align 4
  %41 = load ptr, ptr %9, align 8
  call void @_ZN11CMainWindow18qt_static_metacallEP7QObjectN11QMetaObject4CallEiPPv(ptr noundef %10, i32 noundef %39, i32 noundef %40, ptr noundef %41)
  br label %42

42:                                               ; preds = %38, %35
  %43 = load i32, ptr %8, align 4
  %44 = sub nsw i32 %43, 16
  store i32 %44, ptr %8, align 4
  br label %45

45:                                               ; preds = %42, %32
  br label %46

46:                                               ; preds = %45, %29
  %47 = load i32, ptr %8, align 4
  store i32 %47, ptr %5, align 4
  br label %48

48:                                               ; preds = %46, %17
  %49 = load i32, ptr %5, align 4
  ret i32 %49
}