; Function Attrs: mustprogress uwtable
define noundef i32 @_ZN11CMainWindow11qt_metacallEN11QMetaObject4CallEiPPv(ptr noundef nonnull align 8 dereferenceable(288) %0, i32 noundef %1, i32 noundef %2, ptr noundef %3) unnamed_addr #0 align 2 {
  %5 = tail call noundef i32 @_ZN11QMainWindow11qt_metacallEN11QMetaObject4CallEiPPv(ptr noundef nonnull align 8 dereferenceable(40) %0, i32 noundef %1, i32 noundef %2, ptr noundef %3)
  %6 = icmp slt i32 %5, 0
  br i1 %6, label %26, label %7

7:                                                ; preds = %4
  switch i32 %1, label %26 [
    i32 0, label %8
    i32 7, label %13
  ]

8:                                                ; preds = %7
  %9 = icmp ult i32 %5, 16
  br i1 %9, label %10, label %11

10:                                               ; preds = %8
  tail call void @_ZN11CMainWindow18qt_static_metacallEP7QObjectN11QMetaObject4CallEiPPv(ptr noundef nonnull %0, i32 noundef 0, i32 noundef %5, ptr noundef %3)
  br label %11

11:                                               ; preds = %10, %8
  %12 = add nsw i32 %5, -16
  br label %26

13:                                               ; preds = %7
  %14 = icmp ult i32 %5, 16
  br i1 %14, label %15, label %_ZN11CMainWindow18qt_static_metacallEP7QObjectN11QMetaObject4CallEiPPv.exit

15:                                               ; preds = %13
  %cond.i = icmp eq i32 %5, 15
  br i1 %cond.i, label %18, label %16

16:                                               ; preds = %15
  %17 = load ptr, ptr %3, align 8
  store i64 0, ptr %17, align 8
  br label %_ZN11CMainWindow18qt_static_metacallEP7QObjectN11QMetaObject4CallEiPPv.exit

18:                                               ; preds = %15
  %19 = getelementptr inbounds i8, ptr %3, i64 8
  %20 = load ptr, ptr %19, align 8
  %21 = load i32, ptr %20, align 4
  %cond1.i = icmp eq i32 %21, 0
  %22 = load ptr, ptr %3, align 8
  br i1 %cond1.i, label %24, label %23

23:                                               ; preds = %18
  store i64 0, ptr %22, align 8
  br label %_ZN11CMainWindow18qt_static_metacallEP7QObjectN11QMetaObject4CallEiPPv.exit

24:                                               ; preds = %18
  store ptr @_ZN9QtPrivate25QMetaTypeInterfaceWrapperIP7QWidgetE8metaTypeE, ptr %22, align 8
  br label %_ZN11CMainWindow18qt_static_metacallEP7QObjectN11QMetaObject4CallEiPPv.exit

_ZN11CMainWindow18qt_static_metacallEP7QObjectN11QMetaObject4CallEiPPv.exit: ; preds = %24, %23, %16, %13
  %25 = add nsw i32 %5, -16
  br label %26

26:                                               ; preds = %11, %_ZN11CMainWindow18qt_static_metacallEP7QObjectN11QMetaObject4CallEiPPv.exit, %7, %4
  %.0 = phi i32 [ %5, %4 ], [ %12, %11 ], [ %25, %_ZN11CMainWindow18qt_static_metacallEP7QObjectN11QMetaObject4CallEiPPv.exit ], [ %5, %7 ]
  ret i32 %.0
}